target datalayout = "e-m:e-p270:32:32-p271:32:32-p272:64:64-i64:64-i128:128-f80:128-n8:16:32:64-S128"
target triple = "x86_64-unknown-linux-gnu"

%"class.hermes::(anonymous namespace)::ESTreeJSONDumper" = type { ptr, ptr, i32, i32, i32, [4 x i8], %"class.llvh::StringMap", ptr }
%"class.llvh::StringMap" = type <{ %"class.llvh::StringMapImpl", %"class.llvh::MallocAllocator", [7 x i8] }>
%"class.llvh::StringMapImpl" = type { ptr, i32, i32, i32, i32 }
%"class.llvh::MallocAllocator" = type { i8 }

; Function Attrs: mustprogress nounwind uwtable
define internal void @_ZN6hermes12_GLOBAL__N_116ESTreeJSONDumperD2Ev(ptr noundef nonnull align 8 dereferenceable(72) %this) unnamed_addr #0 align 2 {
entry:
  %this.addr = alloca ptr, align 8
  store ptr %this, ptr %this.addr, align 8
  %this1 = load ptr, ptr %this.addr, align 8
  %ignoredEmptyFields_ = getelementptr inbounds %"class.hermes::(anonymous namespace)::ESTreeJSONDumper", ptr %this1, i32 0, i32 6
  call void @_ZN4llvh9StringMapINS_9StringSetINS_15MallocAllocatorEEES2_ED2Ev(ptr noundef nonnull align 8 dereferenceable(25) %ignoredEmptyFields_) #7
  ret void
}

; Function Attrs: mustprogress nounwind uwtable
define internal void @_ZN6hermes12_GLOBAL__N_116ESTreeJSONDumper4doItEPNS_6ESTree4NodeE(ptr noundef nonnull align 8 dereferenceable(72) %this, ptr noundef %rootNode) #0 align 2 {
entry:
  %this.addr = alloca ptr, align 8
  %rootNode.addr = alloca ptr, align 8
  store ptr %this, ptr %this.addr, align 8
  store ptr %rootNode, ptr %rootNode.addr, align 8
  %this1 = load ptr, ptr %this.addr, align 8
  %0 = load ptr, ptr %rootNode.addr, align 8
  call void @_ZN6hermes12_GLOBAL__N_116ESTreeJSONDumper8dumpNodeEPNS_6ESTree4NodeE(ptr noundef nonnull align 8 dereferenceable(72) %this1, ptr noundef %0)
  ret void
}

; Function Attrs: mustprogress nounwind uwtable
define hidden void @_ZN6hermes14dumpESTreeJSONERNS_11JSONEmitterEPNS_6ESTree4NodeENS_14ESTreeDumpModeERNS_18SourceErrorManagerENS_16LocationDumpModeEPKN4llvh8DenseSetINS2_8NodeKindENS2_12NodeKindInfoEEENS_13ESTreeRawPropE(ptr noundef nonnull align 8 dereferenceable(72) %json, ptr noundef %rootNode, i32 noundef %mode, ptr noundef nonnull align 8 dereferenceable(464) %sm, i32 noundef %locMode, ptr noundef %includeSourceLocs, i32 noundef %rawProp) #0 {
entry:
  %json.addr = alloca ptr, align 8
  %rootNode.addr = alloca ptr, align 8
  %mode.addr = alloca i32, align 4
  %sm.addr = alloca ptr, align 8
  %locMode.addr = alloca i32, align 4
  %includeSourceLocs.addr = alloca ptr, align 8
  %rawProp.addr = alloca i32, align 4
  %ref.tmp = alloca %"class.hermes::(anonymous namespace)::ESTreeJSONDumper", align 8
  store ptr %json, ptr %json.addr, align 8
  store ptr %rootNode, ptr %rootNode.addr, align 8
  store i32 %mode, ptr %mode.addr, align 4
  store ptr %sm, ptr %sm.addr, align 8
  store i32 %locMode, ptr %locMode.addr, align 4
  store ptr %includeSourceLocs, ptr %includeSourceLocs.addr, align 8
  store i32 %rawProp, ptr %rawProp.addr, align 4
  %0 = load ptr, ptr %json.addr, align 8
  %1 = load ptr, ptr %sm.addr, align 8
  %2 = load i32, ptr %mode.addr, align 4
  %3 = load i32, ptr %locMode.addr, align 4
  %4 = load i32, ptr %rawProp.addr, align 4
  %5 = load ptr, ptr %includeSourceLocs.addr, align 8
  call void @_ZN6hermes12_GLOBAL__N_116ESTreeJSONDumperC2ERNS_11JSONEmitterEPNS_18SourceErrorManagerENS_14ESTreeDumpModeENS_16LocationDumpModeENS_13ESTreeRawPropEPKN4llvh8DenseSetINS_6ESTree8NodeKindENSB_12NodeKindInfoEEE(ptr noundef nonnull align 8 dereferenceable(72) %ref.tmp, ptr noundef nonnull align 8 dereferenceable(72) %0, ptr noundef %1, i32 noundef %2, i32 noundef %3, i32 noundef %4, ptr noundef %5)
  %6 = load ptr, ptr %rootNode.addr, align 8
  call void @_ZN6hermes12_GLOBAL__N_116ESTreeJSONDumper4doItEPNS_6ESTree4NodeE(ptr noundef nonnull align 8 dereferenceable(72) %ref.tmp, ptr noundef %6)
  call void @_ZN6hermes12_GLOBAL__N_116ESTreeJSONDumperD2Ev(ptr noundef nonnull align 8 dereferenceable(72) %ref.tmp) #7
  ret void
}