; Function Attrs: mustprogress nounwind uwtable
define hidden void @_ZN6hermes14dumpESTreeJSONERNS_11JSONEmitterEPNS_6ESTree4NodeENS_14ESTreeDumpModeERNS_18SourceErrorManagerENS_16LocationDumpModeEPKN4llvh8DenseSetINS2_8NodeKindENS2_12NodeKindInfoEEENS_13ESTreeRawPropE(ptr noundef nonnull align 8 dereferenceable(72) %json, ptr noundef %rootNode, i32 noundef %mode, ptr noundef nonnull align 8 dereferenceable(464) %sm, i32 noundef %locMode, ptr noundef %includeSourceLocs, i32 noundef %rawProp) local_unnamed_addr #0 {
entry:
  %ref.tmp = alloca %"class.hermes::(anonymous namespace)::ESTreeJSONDumper", align 8
  call fastcc void @_ZN6hermes12_GLOBAL__N_116ESTreeJSONDumperC2ERNS_11JSONEmitterEPNS_18SourceErrorManagerENS_14ESTreeDumpModeENS_16LocationDumpModeENS_13ESTreeRawPropEPKN4llvh8DenseSetINS_6ESTree8NodeKindENSB_12NodeKindInfoEEE(ptr noundef nonnull align 8 dereferenceable(72) %ref.tmp, ptr noundef nonnull align 8 dereferenceable(72) %json, ptr noundef nonnull %sm, i32 noundef %mode, i32 noundef %locMode, i32 noundef %rawProp, ptr noundef %includeSourceLocs)
  call fastcc void @_ZN6hermes12_GLOBAL__N_116ESTreeJSONDumper8dumpNodeEPNS_6ESTree4NodeE(ptr noundef nonnull align 8 dereferenceable(72) %ref.tmp, ptr noundef %rootNode)
  %ignoredEmptyFields_.i = getelementptr inbounds nuw i8, ptr %ref.tmp, i64 32
  call void @_ZN4llvh9StringMapINS_9StringSetINS_15MallocAllocatorEEES2_ED2Ev(ptr noundef nonnull align 8 dereferenceable(25) %ignoredEmptyFields_.i) #7
  ret void
}